target datalayout = "e-m:e-p270:32:32-p271:32:32-p272:64:64-i64:64-i128:128-f80:128-n8:16:32:64-S128"
target triple = "x86_64-pc-linux-gnu"

%struct.GlobalContext = type { %struct.HTable, ptr, ptr, ptr, ptr, ptr, ptr, ptr, ptr, i8, i32, i32, i32, ptr, ptr, %struct.HTable, %struct.HTable, %struct.Module_, %struct.DeclTable, %struct.DeclTable, %struct.Path_, ptr, ptr, ptr, ptr, ptr, ptr, ptr, [65536 x ptr], ptr, ptr, ptr }
%struct.HTable = type { i32, ptr }
%struct.Module_ = type { ptr, ptr, ptr, i16, i32, ptr, %struct.HTable, ptr, ptr, ptr, ptr, ptr, ptr, ptr, ptr, ptr }
%struct.DeclTable = type { i32, i32, i32, ptr }
%struct.Path_ = type { %union.SourceSpan, ptr, i32 }
%union.SourceSpan = type { i64 }
%struct.VHeader_ = type { i32, i32, [0 x i8] }

@global_context = dso_local global %struct.GlobalContext zeroinitializer, align 8

; Function Attrs: nounwind uwtable
define internal ptr @vec_new_(i64 noundef %0, i64 noundef %1) #0 {
  %3 = alloca i64, align 8
  %4 = alloca i64, align 8
  %5 = alloca ptr, align 8
  store i64 %0, ptr %3, align 8
  store i64 %1, ptr %4, align 8
  %6 = load i64, ptr %3, align 8
  %7 = load i64, ptr %4, align 8
  %8 = mul i64 %6, %7
  %9 = add i64 %8, 8
  %10 = call ptr @calloc_arena(i64 noundef %9)
  store ptr %10, ptr %5, align 8
  %11 = load i64, ptr %4, align 8
  %12 = trunc i64 %11 to i32
  %13 = load ptr, ptr %5, align 8
  %14 = getelementptr inbounds %struct.VHeader_, ptr %13, i32 0, i32 1
  store i32 %12, ptr %14, align 4
  %15 = load ptr, ptr %5, align 8
  ret ptr %15
}

; Function Attrs: nounwind uwtable
define internal ptr @expand_(ptr noundef %0, i64 noundef %1) #0 {
  %3 = alloca ptr, align 8
  %4 = alloca i64, align 8
  %5 = alloca ptr, align 8
  %6 = alloca ptr, align 8
  %7 = alloca i64, align 8
  store ptr %0, ptr %3, align 8
  store i64 %1, ptr %4, align 8
  %8 = load ptr, ptr %3, align 8
  %9 = icmp ne ptr %8, null
  br i1 %9, label %13, label %10

10:                                               ; preds = %2
  %11 = load i64, ptr %4, align 8
  %12 = call ptr @vec_new_(i64 noundef %11, i64 noundef 8)
  store ptr %12, ptr %5, align 8
  br label %16

13:                                               ; preds = %2
  %14 = load ptr, ptr %3, align 8
  %15 = getelementptr inbounds %struct.VHeader_, ptr %14, i64 -1
  store ptr %15, ptr %5, align 8
  br label %16

16:                                               ; preds = %13, %10
  %17 = load ptr, ptr %5, align 8
  %18 = getelementptr inbounds %struct.VHeader_, ptr %17, i32 0, i32 0
  %19 = load i32, ptr %18, align 4
  %20 = load ptr, ptr %5, align 8
  %21 = getelementptr inbounds %struct.VHeader_, ptr %20, i32 0, i32 1
  %22 = load i32, ptr %21, align 4
  %23 = icmp eq i32 %19, %22
  br i1 %23, label %24, label %49

24:                                               ; preds = %16
  %25 = load i64, ptr %4, align 8
  %26 = load ptr, ptr %5, align 8
  %27 = getelementptr inbounds %struct.VHeader_, ptr %26, i32 0, i32 1
  %28 = load i32, ptr %27, align 4
  %29 = shl i32 %28, 1
  %30 = zext i32 %29 to i64
  %31 = call ptr @vec_new_(i64 noundef %25, i64 noundef %30)
  store ptr %31, ptr %6, align 8
  %32 = load i64, ptr %4, align 8
  %33 = load ptr, ptr %5, align 8
  %34 = getelementptr inbounds %struct.VHeader_, ptr %33, i32 0, i32 1
  %35 = load i32, ptr %34, align 4
  %36 = zext i32 %35 to i64
  %37 = mul i64 %32, %36
  %38 = add i64 %37, 8
  store i64 %38, ptr %7, align 8
  %39 = load ptr, ptr %6, align 8
  %40 = load ptr, ptr %5, align 8
  %41 = load i64, ptr %7, align 8
  call void @llvm.memcpy.p0.p0.i64(ptr align 4 %39, ptr align 4 %40, i64 %41, i1 false)
  %42 = load ptr, ptr %6, align 8
  store ptr %42, ptr %5, align 8
  %43 = load ptr, ptr %5, align 8
  %44 = getelementptr inbounds %struct.VHeader_, ptr %43, i32 0, i32 1
  %45 = load i32, ptr %44, align 4
  %46 = shl i32 %45, 1
  %47 = load ptr, ptr %6, align 8
  %48 = getelementptr inbounds %struct.VHeader_, ptr %47, i32 0, i32 1
  store i32 %46, ptr %48, align 4
  br label %49

49:                                               ; preds = %24, %16
  %50 = load ptr, ptr %5, align 8
  %51 = getelementptr inbounds %struct.VHeader_, ptr %50, i32 0, i32 0
  %52 = load i32, ptr %51, align 4
  %53 = add i32 %52, 1
  store i32 %53, ptr %51, align 4
  %54 = load ptr, ptr %5, align 8
  %55 = getelementptr inbounds %struct.VHeader_, ptr %54, i64 1
  ret ptr %55
}

; Function Attrs: nounwind uwtable
define dso_local ptr @global_context_find_module(ptr noundef %0) #0 {
  %2 = alloca ptr, align 8
  store ptr %0, ptr %2, align 8
  %3 = load ptr, ptr %2, align 8
  %4 = call ptr @htable_get(ptr noundef @global_context, ptr noundef %3)
  ret ptr %4
}

; Function Attrs: nounwind uwtable
define dso_local ptr @compiler_find_or_create_module(ptr noundef %0, ptr noundef %1) #0 {
  %3 = alloca i32, align 4
  %4 = alloca ptr, align 8
  %5 = alloca ptr, align 8
  %6 = alloca i32, align 4
  %7 = alloca ptr, align 8
  %8 = alloca ptr, align 8
  %9 = alloca i32, align 4
  %10 = alloca ptr, align 8
  %11 = alloca ptr, align 8
  %12 = alloca ptr, align 8
  %13 = alloca ptr, align 8
  %14 = alloca ptr, align 8
  %15 = alloca ptr, align 8
  %16 = alloca ptr, align 8
  %17 = alloca ptr, align 8
  store ptr %0, ptr %13, align 8
  store ptr %1, ptr %14, align 8
  %18 = load ptr, ptr %13, align 8
  %19 = getelementptr inbounds %struct.Path_, ptr %18, i32 0, i32 1
  %20 = load ptr, ptr %19, align 8
  %21 = call ptr @global_context_find_module(ptr noundef %20)
  store ptr %21, ptr %15, align 8
  %22 = load ptr, ptr %15, align 8
  %23 = icmp ne ptr %22, null
  br i1 %23, label %24, label %26

24:                                               ; preds = %2
  %25 = load ptr, ptr %15, align 8
  store ptr %25, ptr %12, align 8
  br label %115

26:                                               ; preds = %2
  br label %27

27:                                               ; preds = %26
  br label %28

28:                                               ; preds = %27
  %29 = call ptr @calloc_arena(i64 noundef 128)
  store ptr %29, ptr %15, align 8
  %30 = load ptr, ptr %13, align 8
  %31 = load ptr, ptr %15, align 8
  %32 = getelementptr inbounds %struct.Module_, ptr %31, i32 0, i32 0
  store ptr %30, ptr %32, align 8
  %33 = load ptr, ptr %15, align 8
  %34 = getelementptr inbounds %struct.Module_, ptr %33, i32 0, i32 3
  %35 = load i16, ptr %34, align 8
  %36 = and i16 %35, -2017
  %37 = or i16 %36, 0
  store i16 %37, ptr %34, align 8
  %38 = load ptr, ptr %14, align 8
  %39 = load ptr, ptr %15, align 8
  %40 = getelementptr inbounds %struct.Module_, ptr %39, i32 0, i32 2
  store ptr %38, ptr %40, align 8
  %41 = load ptr, ptr %14, align 8
  store ptr %41, ptr %4, align 8
  %42 = load ptr, ptr %4, align 8
  %43 = icmp ne ptr %42, null
  br i1 %43, label %45, label %44

44:                                               ; preds = %28
  store i32 0, ptr %3, align 4
  br label %50

45:                                               ; preds = %28
  %46 = load ptr, ptr %4, align 8
  store ptr %46, ptr %5, align 8
  %47 = load ptr, ptr %5, align 8
  %48 = getelementptr inbounds %struct.VHeader_, ptr %47, i64 -1
  %49 = load i32, ptr %48, align 4
  store i32 %49, ptr %3, align 4
  br label %50

50:                                               ; preds = %45, %44
  %51 = load i32, ptr %3, align 4
  %52 = icmp ugt i32 %51, 0
  %53 = load ptr, ptr %15, align 8
  %54 = getelementptr inbounds %struct.Module_, ptr %53, i32 0, i32 3
  %55 = zext i1 %52 to i16
  %56 = load i16, ptr %54, align 8
  %57 = shl i16 %55, 3
  %58 = and i16 %56, -9
  %59 = or i16 %58, %57
  store i16 %59, ptr %54, align 8
  %60 = load ptr, ptr %15, align 8
  %61 = getelementptr inbounds %struct.Module_, ptr %60, i32 0, i32 6
  call void @htable_init(ptr noundef %61, i32 noundef 4096)
  %62 = load ptr, ptr %13, align 8
  %63 = getelementptr inbounds %struct.Path_, ptr %62, i32 0, i32 1
  %64 = load ptr, ptr %63, align 8
  %65 = load ptr, ptr %15, align 8
  %66 = call ptr @htable_set(ptr noundef @global_context, ptr noundef %64, ptr noundef %65)
  %67 = load ptr, ptr %14, align 8
  %68 = icmp ne ptr %67, null
  br i1 %68, label %69, label %91

69:                                               ; preds = %50
  br label %70

70:                                               ; preds = %69
  %71 = load ptr, ptr getelementptr inbounds (%struct.GlobalContext, ptr @global_context, i32 0, i32 3), align 8
  %72 = call ptr @expand_(ptr noundef %71, i64 noundef 8)
  store ptr %72, ptr %16, align 8
  %73 = load ptr, ptr %16, align 8
  store ptr %73, ptr getelementptr inbounds (%struct.GlobalContext, ptr @global_context, i32 0, i32 3), align 8
  %74 = load ptr, ptr %15, align 8
  %75 = load ptr, ptr getelementptr inbounds (%struct.GlobalContext, ptr @global_context, i32 0, i32 3), align 8
  %76 = load ptr, ptr getelementptr inbounds (%struct.GlobalContext, ptr @global_context, i32 0, i32 3), align 8
  store ptr %76, ptr %7, align 8
  %77 = load ptr, ptr %7, align 8
  %78 = icmp ne ptr %77, null
  br i1 %78, label %80, label %79

79:                                               ; preds = %70
  store i32 0, ptr %6, align 4
  br label %85

80:                                               ; preds = %70
  %81 = load ptr, ptr %7, align 8
  store ptr %81, ptr %8, align 8
  %82 = load ptr, ptr %8, align 8
  %83 = getelementptr inbounds %struct.VHeader_, ptr %82, i64 -1
  %84 = load i32, ptr %83, align 4
  store i32 %84, ptr %6, align 4
  br label %85

85:                                               ; preds = %80, %79
  %86 = load i32, ptr %6, align 4
  %87 = sub i32 %86, 1
  %88 = zext i32 %87 to i64
  %89 = getelementptr inbounds ptr, ptr %75, i64 %88
  store ptr %74, ptr %89, align 8
  br label %90

90:                                               ; preds = %85
  br label %113

91:                                               ; preds = %50
  br label %92

92:                                               ; preds = %91
  %93 = load ptr, ptr getelementptr inbounds (%struct.GlobalContext, ptr @global_context, i32 0, i32 2), align 8
  %94 = call ptr @expand_(ptr noundef %93, i64 noundef 8)
  store ptr %94, ptr %17, align 8
  %95 = load ptr, ptr %17, align 8
  store ptr %95, ptr getelementptr inbounds (%struct.GlobalContext, ptr @global_context, i32 0, i32 2), align 8
  %96 = load ptr, ptr %15, align 8
  %97 = load ptr, ptr getelementptr inbounds (%struct.GlobalContext, ptr @global_context, i32 0, i32 2), align 8
  %98 = load ptr, ptr getelementptr inbounds (%struct.GlobalContext, ptr @global_context, i32 0, i32 2), align 8
  store ptr %98, ptr %10, align 8
  %99 = load ptr, ptr %10, align 8
  %100 = icmp ne ptr %99, null
  br i1 %100, label %102, label %101

101:                                              ; preds = %92
  store i32 0, ptr %9, align 4
  br label %107

102:                                              ; preds = %92
  %103 = load ptr, ptr %10, align 8
  store ptr %103, ptr %11, align 8
  %104 = load ptr, ptr %11, align 8
  %105 = getelementptr inbounds %struct.VHeader_, ptr %104, i64 -1
  %106 = load i32, ptr %105, align 4
  store i32 %106, ptr %9, align 4
  br label %107

107:                                              ; preds = %102, %101
  %108 = load i32, ptr %9, align 4
  %109 = sub i32 %108, 1
  %110 = zext i32 %109 to i64
  %111 = getelementptr inbounds ptr, ptr %97, i64 %110
  store ptr %96, ptr %111, align 8
  br label %112

112:                                              ; preds = %107
  br label %113

113:                                              ; preds = %112, %90
  %114 = load ptr, ptr %15, align 8
  store ptr %114, ptr %12, align 8
  br label %115

115:                                              ; preds = %113, %24
  %116 = load ptr, ptr %12, align 8
  ret ptr %116
}