; Function Attrs: nounwind uwtable
define dso_local ptr @compiler_find_or_create_module(ptr noundef %0, ptr noundef %1) local_unnamed_addr #0 {
  %3 = getelementptr inbounds i8, ptr %0, i64 8
  %4 = load ptr, ptr %3, align 8
  %5 = tail call ptr @htable_get(ptr noundef nonnull @global_context, ptr noundef %4) #20
  %.not = icmp eq ptr %5, null
  br i1 %.not, label %6, label %78

6:                                                ; preds = %2
  %7 = tail call ptr @calloc_arena(i64 noundef 128) #20
  store ptr %0, ptr %7, align 8
  %8 = getelementptr inbounds i8, ptr %7, i64 24
  %9 = load i16, ptr %8, align 8
  %10 = and i16 %9, -2017
  store i16 %10, ptr %8, align 8
  %11 = getelementptr inbounds i8, ptr %7, i64 16
  store ptr %1, ptr %11, align 8
  %.not38 = icmp eq ptr %1, null
  br i1 %.not38, label %.critedge, label %12

12:                                               ; preds = %6
  %13 = getelementptr inbounds i8, ptr %1, i64 -8
  %14 = load i32, ptr %13, align 4
  %.not39 = icmp eq i32 %14, 0
  %15 = select i1 %.not39, i16 0, i16 8
  %16 = and i16 %9, -2025
  %17 = or disjoint i16 %15, %16
  store i16 %17, ptr %8, align 8
  %18 = getelementptr inbounds i8, ptr %7, i64 40
  tail call void @htable_init(ptr noundef nonnull %18, i32 noundef 4096) #20
  %19 = load ptr, ptr %3, align 8
  %20 = tail call ptr @htable_set(ptr noundef nonnull @global_context, ptr noundef %19, ptr noundef nonnull %7) #20
  %21 = load ptr, ptr getelementptr inbounds (%struct.GlobalContext, ptr @global_context, i64 0, i32 3), align 8
  %.not.i = icmp eq ptr %21, null
  br i1 %.not.i, label %22, label %25

22:                                               ; preds = %12
  %23 = tail call ptr @calloc_arena(i64 noundef 72) #20
  %24 = getelementptr inbounds i8, ptr %23, i64 4
  store i32 8, ptr %24, align 4
  br label %27

25:                                               ; preds = %12
  %26 = getelementptr inbounds i8, ptr %21, i64 -8
  %.phi.trans.insert.i = getelementptr inbounds i8, ptr %21, i64 -4
  %.pre.i = load i32, ptr %.phi.trans.insert.i, align 4
  br label %27

27:                                               ; preds = %25, %22
  %28 = phi i32 [ %.pre.i, %25 ], [ 8, %22 ]
  %.0.i = phi ptr [ %26, %25 ], [ %23, %22 ]
  %29 = load i32, ptr %.0.i, align 4
  %30 = icmp eq i32 %29, %28
  br i1 %30, label %31, label %.sink.split

31:                                               ; preds = %27
  %32 = getelementptr inbounds i8, ptr %.0.i, i64 4
  %33 = shl i32 %28, 1
  %34 = zext i32 %33 to i64
  %35 = shl nuw nsw i64 %34, 3
  %36 = or disjoint i64 %35, 8
  %37 = tail call ptr @calloc_arena(i64 noundef %36) #20
  %38 = getelementptr inbounds i8, ptr %37, i64 4
  store i32 %33, ptr %38, align 4
  %39 = load i32, ptr %32, align 4
  %40 = zext i32 %39 to i64
  %41 = shl nuw nsw i64 %40, 3
  %42 = add nuw nsw i64 %41, 8
  tail call void @llvm.memcpy.p0.p0.i64(ptr noundef nonnull align 4 dereferenceable(1) %37, ptr noundef nonnull align 4 dereferenceable(1) %.0.i, i64 %42, i1 false)
  br label %.sink.split.sink.split

.critedge:                                        ; preds = %6
  %43 = and i16 %9, -2025
  store i16 %43, ptr %8, align 8
  %44 = getelementptr inbounds i8, ptr %7, i64 40
  tail call void @htable_init(ptr noundef nonnull %44, i32 noundef 4096) #20
  %45 = load ptr, ptr %3, align 8
  %46 = tail call ptr @htable_set(ptr noundef nonnull @global_context, ptr noundef %45, ptr noundef nonnull %7) #20
  %47 = load ptr, ptr getelementptr inbounds (%struct.GlobalContext, ptr @global_context, i64 0, i32 2), align 8
  %.not.i42 = icmp eq ptr %47, null
  br i1 %.not.i42, label %48, label %51

48:                                               ; preds = %.critedge
  %49 = tail call ptr @calloc_arena(i64 noundef 72) #20
  %50 = getelementptr inbounds i8, ptr %49, i64 4
  store i32 8, ptr %50, align 4
  br label %53

51:                                               ; preds = %.critedge
  %52 = getelementptr inbounds i8, ptr %47, i64 -8
  %.phi.trans.insert.i43 = getelementptr inbounds i8, ptr %47, i64 -4
  %.pre.i44 = load i32, ptr %.phi.trans.insert.i43, align 4
  br label %53

53:                                               ; preds = %51, %48
  %54 = phi i32 [ %.pre.i44, %51 ], [ 8, %48 ]
  %.0.i45 = phi ptr [ %52, %51 ], [ %49, %48 ]
  %55 = load i32, ptr %.0.i45, align 4
  %56 = icmp eq i32 %55, %54
  br i1 %56, label %57, label %.sink.split

57:                                               ; preds = %53
  %58 = getelementptr inbounds i8, ptr %.0.i45, i64 4
  %59 = shl i32 %54, 1
  %60 = zext i32 %59 to i64
  %61 = shl nuw nsw i64 %60, 3
  %62 = or disjoint i64 %61, 8
  %63 = tail call ptr @calloc_arena(i64 noundef %62) #20
  %64 = getelementptr inbounds i8, ptr %63, i64 4
  store i32 %59, ptr %64, align 4
  %65 = load i32, ptr %58, align 4
  %66 = zext i32 %65 to i64
  %67 = shl nuw nsw i64 %66, 3
  %68 = add nuw nsw i64 %67, 8
  tail call void @llvm.memcpy.p0.p0.i64(ptr noundef nonnull align 4 dereferenceable(1) %63, ptr noundef nonnull align 4 dereferenceable(1) %.0.i45, i64 %68, i1 false)
  br label %.sink.split.sink.split

.sink.split.sink.split:                           ; preds = %31, %57
  %.sink58 = phi ptr [ %64, %57 ], [ %38, %31 ]
  %.sink = phi ptr [ %63, %57 ], [ %37, %31 ]
  %.sink52.ph = phi ptr [ getelementptr inbounds (%struct.GlobalContext, ptr @global_context, i64 0, i32 2), %57 ], [ getelementptr inbounds (%struct.GlobalContext, ptr @global_context, i64 0, i32 3), %31 ]
  %69 = load i32, ptr %.sink58, align 4
  %70 = shl i32 %69, 1
  store i32 %70, ptr %.sink58, align 4
  %.pre18.i47 = load i32, ptr %.sink, align 4
  br label %.sink.split

.sink.split:                                      ; preds = %.sink.split.sink.split, %53, %27
  %.sink54 = phi i32 [ %29, %27 ], [ %55, %53 ], [ %.pre18.i47, %.sink.split.sink.split ]
  %.1.i46.sink53 = phi ptr [ %.0.i, %27 ], [ %.0.i45, %53 ], [ %.sink, %.sink.split.sink.split ]
  %.sink52 = phi ptr [ getelementptr inbounds (%struct.GlobalContext, ptr @global_context, i64 0, i32 3), %27 ], [ getelementptr inbounds (%struct.GlobalContext, ptr @global_context, i64 0, i32 2), %53 ], [ %.sink52.ph, %.sink.split.sink.split ]
  %71 = add i32 %.sink54, 1
  store i32 %71, ptr %.1.i46.sink53, align 4
  %72 = getelementptr inbounds i8, ptr %.1.i46.sink53, i64 8
  store ptr %72, ptr %.sink52, align 8
  %73 = getelementptr inbounds i8, ptr %.1.i46.sink53, i64 8
  %74 = load i32, ptr %.1.i46.sink53, align 4
  %75 = add i32 %74, -1
  %76 = zext i32 %75 to i64
  %77 = getelementptr inbounds ptr, ptr %73, i64 %76
  store ptr %7, ptr %77, align 8
  br label %78

78:                                               ; preds = %.sink.split, %2
  %.033 = phi ptr [ %5, %2 ], [ %7, %.sink.split ]
  ret ptr %.033
}